; ModuleID = '57/104.c'
source_filename = "57/104.c"
target datalayout = "e-m:e-p270:32:32-p271:32:32-p272:64:64-i64:64-f80:128-n8:16:32:64-S128"
target triple = "x86_64-pc-linux-gnu"

@.str = private unnamed_addr constant [3 x i8] c"%d\00", align 1
@.str.1 = private unnamed_addr constant [3 x i8] c"%s\00", align 1
@.str.2 = private unnamed_addr constant [4 x i8] c"%s\0A\00", align 1

; Function Attrs: noinline nounwind uwtable
define dso_local void @main() #0 {
  %1 = alloca i32, align 4
  %2 = alloca i32, align 4
  %3 = alloca i32, align 4
  %4 = alloca [50 x [15 x i8]], align 16
  %5 = call i32 (i8*, ...) @__isoc99_scanf(i8* getelementptr inbounds ([3 x i8], [3 x i8]* @.str, i64 0, i64 0), i32* %1)
  store i32 0, i32* %2, align 4
  br label %6

6:                                                ; preds = %16, %0
  %7 = load i32, i32* %2, align 4
  %8 = load i32, i32* %1, align 4
  %9 = icmp slt i32 %7, %8
  br i1 %9, label %10, label %19

10:                                               ; preds = %6
  %11 = load i32, i32* %2, align 4
  %12 = sext i32 %11 to i64
  %13 = getelementptr inbounds [50 x [15 x i8]], [50 x [15 x i8]]* %4, i64 0, i64 %12
  %14 = getelementptr inbounds [15 x i8], [15 x i8]* %13, i64 0, i64 0
  %15 = call i32 (i8*, ...) @__isoc99_scanf(i8* getelementptr inbounds ([3 x i8], [3 x i8]* @.str.1, i64 0, i64 0), i8* %14)
  br label %16

16:                                               ; preds = %10
  %17 = load i32, i32* %2, align 4
  %18 = add nsw i32 %17, 1
  store i32 %18, i32* %2, align 4
  br label %6

19:                                               ; preds = %6
  store i32 0, i32* %2, align 4
  br label %20

20:                                               ; preds = %81, %19
  %21 = load i32, i32* %2, align 4
  %22 = load i32, i32* %1, align 4
  %23 = icmp slt i32 %21, %22
  br i1 %23, label %24, label %84

24:                                               ; preds = %20
  %25 = load i32, i32* %2, align 4
  %26 = sext i32 %25 to i64
  %27 = getelementptr inbounds [50 x [15 x i8]], [50 x [15 x i8]]* %4, i64 0, i64 %26
  %28 = getelementptr inbounds [15 x i8], [15 x i8]* %27, i64 0, i64 0
  %29 = call i64 @strlen(i8* %28) #3
  %30 = trunc i64 %29 to i32
  store i32 %30, i32* %3, align 4
  %31 = load i32, i32* %2, align 4
  %32 = sext i32 %31 to i64
  %33 = getelementptr inbounds [50 x [15 x i8]], [50 x [15 x i8]]* %4, i64 0, i64 %32
  %34 = load i32, i32* %3, align 4
  %35 = sub nsw i32 %34, 1
  %36 = sext i32 %35 to i64
  %37 = getelementptr inbounds [15 x i8], [15 x i8]* %33, i64 0, i64 %36
  %38 = load i8, i8* %37, align 1
  %39 = sext i8 %38 to i32
  %40 = icmp eq i32 %39, 103
  br i1 %40, label %41, label %49

41:                                               ; preds = %24
  %42 = load i32, i32* %2, align 4
  %43 = sext i32 %42 to i64
  %44 = getelementptr inbounds [50 x [15 x i8]], [50 x [15 x i8]]* %4, i64 0, i64 %43
  %45 = load i32, i32* %3, align 4
  %46 = sub nsw i32 %45, 3
  %47 = sext i32 %46 to i64
  %48 = getelementptr inbounds [15 x i8], [15 x i8]* %44, i64 0, i64 %47
  store i8 0, i8* %48, align 1
  br label %80

49:                                               ; preds = %24
  %50 = load i32, i32* %2, align 4
  %51 = sext i32 %50 to i64
  %52 = getelementptr inbounds [50 x [15 x i8]], [50 x [15 x i8]]* %4, i64 0, i64 %51
  %53 = load i32, i32* %3, align 4
  %54 = sub nsw i32 %53, 1
  %55 = sext i32 %54 to i64
  %56 = getelementptr inbounds [15 x i8], [15 x i8]* %52, i64 0, i64 %55
  %57 = load i8, i8* %56, align 1
  %58 = sext i8 %57 to i32
  %59 = icmp eq i32 %58, 121
  br i1 %59, label %71, label %60

60:                                               ; preds = %49
  %61 = load i32, i32* %2, align 4
  %62 = sext i32 %61 to i64
  %63 = getelementptr inbounds [50 x [15 x i8]], [50 x [15 x i8]]* %4, i64 0, i64 %62
  %64 = load i32, i32* %3, align 4
  %65 = sub nsw i32 %64, 1
  %66 = sext i32 %65 to i64
  %67 = getelementptr inbounds [15 x i8], [15 x i8]* %63, i64 0, i64 %66
  %68 = load i8, i8* %67, align 1
  %69 = sext i8 %68 to i32
  %70 = icmp eq i32 %69, 114
  br i1 %70, label %71, label %79

71:                                               ; preds = %60, %49
  %72 = load i32, i32* %2, align 4
  %73 = sext i32 %72 to i64
  %74 = getelementptr inbounds [50 x [15 x i8]], [50 x [15 x i8]]* %4, i64 0, i64 %73
  %75 = load i32, i32* %3, align 4
  %76 = sub nsw i32 %75, 2
  %77 = sext i32 %76 to i64
  %78 = getelementptr inbounds [15 x i8], [15 x i8]* %74, i64 0, i64 %77
  store i8 0, i8* %78, align 1
  br label %79

79:                                               ; preds = %71, %60
  br label %80

80:                                               ; preds = %79, %41
  br label %81

81:                                               ; preds = %80
  %82 = load i32, i32* %2, align 4
  %83 = add nsw i32 %82, 1
  store i32 %83, i32* %2, align 4
  br label %20

84:                                               ; preds = %20
  store i32 0, i32* %2, align 4
  br label %85

85:                                               ; preds = %95, %84
  %86 = load i32, i32* %2, align 4
  %87 = load i32, i32* %1, align 4
  %88 = icmp slt i32 %86, %87
  br i1 %88, label %89, label %98

89:                                               ; preds = %85
  %90 = load i32, i32* %2, align 4
  %91 = sext i32 %90 to i64
  %92 = getelementptr inbounds [50 x [15 x i8]], [50 x [15 x i8]]* %4, i64 0, i64 %91
  %93 = getelementptr inbounds [15 x i8], [15 x i8]* %92, i64 0, i64 0
  %94 = call i32 (i8*, ...) @printf(i8* getelementptr inbounds ([4 x i8], [4 x i8]* @.str.2, i64 0, i64 0), i8* %93)
  br label %95

95:                                               ; preds = %89
  %96 = load i32, i32* %2, align 4
  %97 = add nsw i32 %96, 1
  store i32 %97, i32* %2, align 4
  br label %85

98:                                               ; preds = %85
  ret void
}

declare dso_local i32 @__isoc99_scanf(i8*, ...) #1

; Function Attrs: nounwind readonly
declare dso_local i64 @strlen(i8*) #2

declare dso_local i32 @printf(i8*, ...) #1


!llvm.module.flags = !{!0}
!llvm.ident = !{!1}

!0 = !{i32 1, !"wchar_size", i32 4}
!1 = !{!"clang version 10.0.0-4ubuntu1 "}
